(dp1
S'lang'
p2
S'en'
p3
sS'_volre'
p4
(dp5
S'month'
p6
S'^(?P<year>[0-9]{4,4})-(?P<month>[a-zA-Z]+)$'
p7
sS'week'
p8
S'^Week-of-Mon-(?P<year>[0-9]{4,4})(?P<month>[01][0-9])(?P<day>[0123][0-9])'
p9
sS'quarter'
p10
S'^(?P<year>[0-9]{4,4})q(?P<quarter>[1234])$'
p11
sS'day'
p12
S'^(?P<year>[0-9]{4,4})(?P<month>[01][0-9])(?P<day>[0123][0-9])$'
p13
sS'year'
p14
S'^(?P<year>[0-9]{4,4})$'
p15
ssS'archives'
p16
(lp17
S'2019-March'
p18
aS'2019-February'
p19
aS'2018-December'
p20
aS'2018-November'
p21
aS'2018-October'
p22
aS'2018-September'
p23
aS'2018-July'
p24
aS'2018-May'
p25
aS'2018-April'
p26
aS'2018-March'
p27
aS'2018-January'
p28
aS'2017-December'
p29
aS'2017-November'
p30
aS'2017-September'
p31
aS'2017-June'
p32
aS'2017-April'
p33
aS'2016-July'
p34
aS'2016-June'
p35
aS'2016-April'
p36
aS'2016-March'
p37
aS'2016-February'
p38
aS'2016-January'
p39
aS'2015-September'
p40
aS'2015-August'
p41
aS'2015-July'
p42
aS'2015-June'
p43
aS'2015-April'
p44
aS'2015-March'
p45
aS'2014-June'
p46
aS'2014-March'
p47
aS'2014-February'
p48
aS'2014-January'
p49
aS'2013-October'
p50
aS'2012-August'
p51
aS'2011-July'
p52
asS'update_TOC'
p53
I0
sS'sequence'
p54
I227
sS'basedir'
p55
S'/var/lib/mailman/archives/private/owasp-cheat-sheets'
p56
sS'depth'
p57
I0
sS'version'
p58
S'0.09 (Mailman edition)'
p59
sS'lastdate'
p60
S'Fri Mar 22 17:02:47 2019'
p61
sS'archivedate'
p62
S'Fri Mar 22 17:02:50 2019'
p63
sS'_dirty_archives'
p64
(lp65
sS'firstdate'
p66
S'Sat Mar  9 04:20:26 2019'
p67
sS'type'
p68
S'Thread'
p69
sS'archive'
p70
S'2019-March'
p71
sS'size'
p72
I8
s.